target datalayout = "e-m:e-p270:32:32-p271:32:32-p272:64:64-i64:64-i128:128-f80:128-n8:16:32:64-S128"
target triple = "x86_64-pc-linux-gnu"

; Function Attrs: inlinehint nounwind uwtable
define internal zeroext i8 @lean_uint32_dec_eq(i32 noundef %0, i32 noundef %1) #0 {
  %3 = alloca i32, align 4
  %4 = alloca i32, align 4
  store i32 %0, ptr %3, align 4, !tbaa !4
  store i32 %1, ptr %4, align 4, !tbaa !4
  %5 = load i32, ptr %3, align 4, !tbaa !4
  %6 = load i32, ptr %4, align 4, !tbaa !4
  %7 = icmp eq i32 %5, %6
  %8 = zext i1 %7 to i32
  %9 = trunc i32 %8 to i8
  ret i8 %9
}

; Function Attrs: nounwind uwtable
define zeroext i8 @l_Lean_ParseImports_isIdRestCold(i32 noundef %0) #2 {
  %2 = alloca i8, align 1
  %3 = alloca i32, align 4
  %4 = alloca i32, align 4
  %5 = alloca i8, align 1
  %6 = alloca i32, align 4
  %7 = alloca i8, align 1
  %8 = alloca i32, align 4
  %9 = alloca i8, align 1
  %10 = alloca i32, align 4
  %11 = alloca i8, align 1
  %12 = alloca i8, align 1
  %13 = alloca i8, align 1
  %14 = alloca i32, align 4
  %15 = alloca i8, align 1
  %16 = alloca i8, align 1
  %17 = alloca i8, align 1
  %18 = alloca i8, align 1
  %19 = alloca i8, align 1
  store i32 %0, ptr %3, align 4, !tbaa !4
  br label %20

20:                                               ; preds = %1
  call void @llvm.lifetime.start.p0(i64 4, ptr %4) #7
  call void @llvm.lifetime.start.p0(i64 1, ptr %5) #7
  store i32 95, ptr %4, align 4, !tbaa !4
  %21 = load i32, ptr %3, align 4, !tbaa !4
  %22 = load i32, ptr %4, align 4, !tbaa !4
  %23 = call zeroext i8 @lean_uint32_dec_eq(i32 noundef %21, i32 noundef %22)
  store i8 %23, ptr %5, align 1, !tbaa !14
  %24 = load i8, ptr %5, align 1, !tbaa !14
  %25 = zext i8 %24 to i32
  %26 = icmp eq i32 %25, 0
  br i1 %26, label %27, label %70

27:                                               ; preds = %20
  call void @llvm.lifetime.start.p0(i64 4, ptr %6) #7
  call void @llvm.lifetime.start.p0(i64 1, ptr %7) #7
  store i32 39, ptr %6, align 4, !tbaa !4
  %28 = load i32, ptr %3, align 4, !tbaa !4
  %29 = load i32, ptr %6, align 4, !tbaa !4
  %30 = call zeroext i8 @lean_uint32_dec_eq(i32 noundef %28, i32 noundef %29)
  store i8 %30, ptr %7, align 1, !tbaa !14
  %31 = load i8, ptr %7, align 1, !tbaa !14
  %32 = zext i8 %31 to i32
  %33 = icmp eq i32 %32, 0
  br i1 %33, label %34, label %67

34:                                               ; preds = %27
  call void @llvm.lifetime.start.p0(i64 4, ptr %8) #7
  call void @llvm.lifetime.start.p0(i64 1, ptr %9) #7
  store i32 33, ptr %8, align 4, !tbaa !4
  %35 = load i32, ptr %3, align 4, !tbaa !4
  %36 = load i32, ptr %8, align 4, !tbaa !4
  %37 = call zeroext i8 @lean_uint32_dec_eq(i32 noundef %35, i32 noundef %36)
  store i8 %37, ptr %9, align 1, !tbaa !14
  %38 = load i8, ptr %9, align 1, !tbaa !14
  %39 = zext i8 %38 to i32
  %40 = icmp eq i32 %39, 0
  br i1 %40, label %41, label %64

41:                                               ; preds = %34
  call void @llvm.lifetime.start.p0(i64 4, ptr %10) #7
  call void @llvm.lifetime.start.p0(i64 1, ptr %11) #7
  store i32 63, ptr %10, align 4, !tbaa !4
  %42 = load i32, ptr %3, align 4, !tbaa !4
  %43 = load i32, ptr %10, align 4, !tbaa !4
  %44 = call zeroext i8 @lean_uint32_dec_eq(i32 noundef %42, i32 noundef %43)
  store i8 %44, ptr %11, align 1, !tbaa !14
  %45 = load i8, ptr %11, align 1, !tbaa !14
  %46 = zext i8 %45 to i32
  %47 = icmp eq i32 %46, 0
  br i1 %47, label %48, label %61

48:                                               ; preds = %41
  call void @llvm.lifetime.start.p0(i64 1, ptr %12) #7
  %49 = load i32, ptr %3, align 4, !tbaa !4
  %50 = call zeroext i8 @l_Lean_isLetterLike(i32 noundef %49)
  store i8 %50, ptr %12, align 1, !tbaa !14
  %51 = load i8, ptr %12, align 1, !tbaa !14
  %52 = zext i8 %51 to i32
  %53 = icmp eq i32 %52, 0
  br i1 %53, label %54, label %58

54:                                               ; preds = %48
  call void @llvm.lifetime.start.p0(i64 1, ptr %13) #7
  %55 = load i32, ptr %3, align 4, !tbaa !4
  %56 = call zeroext i8 @l_Lean_isSubScriptAlnum(i32 noundef %55)
  store i8 %56, ptr %13, align 1, !tbaa !14
  %57 = load i8, ptr %13, align 1, !tbaa !14
  store i8 %57, ptr %2, align 1
  store i32 1, ptr %14, align 4
  call void @llvm.lifetime.end.p0(i64 1, ptr %13) #7
  br label %60

58:                                               ; preds = %48
  call void @llvm.lifetime.start.p0(i64 1, ptr %15) #7
  store i8 1, ptr %15, align 1, !tbaa !14
  %59 = load i8, ptr %15, align 1, !tbaa !14
  store i8 %59, ptr %2, align 1
  store i32 1, ptr %14, align 4
  call void @llvm.lifetime.end.p0(i64 1, ptr %15) #7
  br label %60

60:                                               ; preds = %58, %54
  call void @llvm.lifetime.end.p0(i64 1, ptr %12) #7
  br label %63

61:                                               ; preds = %41
  call void @llvm.lifetime.start.p0(i64 1, ptr %16) #7
  store i8 1, ptr %16, align 1, !tbaa !14
  %62 = load i8, ptr %16, align 1, !tbaa !14
  store i8 %62, ptr %2, align 1
  store i32 1, ptr %14, align 4
  call void @llvm.lifetime.end.p0(i64 1, ptr %16) #7
  br label %63

63:                                               ; preds = %61, %60
  call void @llvm.lifetime.end.p0(i64 1, ptr %11) #7
  call void @llvm.lifetime.end.p0(i64 4, ptr %10) #7
  br label %66

64:                                               ; preds = %34
  call void @llvm.lifetime.start.p0(i64 1, ptr %17) #7
  store i8 1, ptr %17, align 1, !tbaa !14
  %65 = load i8, ptr %17, align 1, !tbaa !14
  store i8 %65, ptr %2, align 1
  store i32 1, ptr %14, align 4
  call void @llvm.lifetime.end.p0(i64 1, ptr %17) #7
  br label %66

66:                                               ; preds = %64, %63
  call void @llvm.lifetime.end.p0(i64 1, ptr %9) #7
  call void @llvm.lifetime.end.p0(i64 4, ptr %8) #7
  br label %69

67:                                               ; preds = %27
  call void @llvm.lifetime.start.p0(i64 1, ptr %18) #7
  store i8 1, ptr %18, align 1, !tbaa !14
  %68 = load i8, ptr %18, align 1, !tbaa !14
  store i8 %68, ptr %2, align 1
  store i32 1, ptr %14, align 4
  call void @llvm.lifetime.end.p0(i64 1, ptr %18) #7
  br label %69

69:                                               ; preds = %67, %66
  call void @llvm.lifetime.end.p0(i64 1, ptr %7) #7
  call void @llvm.lifetime.end.p0(i64 4, ptr %6) #7
  br label %72

70:                                               ; preds = %20
  call void @llvm.lifetime.start.p0(i64 1, ptr %19) #7
  store i8 1, ptr %19, align 1, !tbaa !14
  %71 = load i8, ptr %19, align 1, !tbaa !14
  store i8 %71, ptr %2, align 1
  store i32 1, ptr %14, align 4
  call void @llvm.lifetime.end.p0(i64 1, ptr %19) #7
  br label %72

72:                                               ; preds = %70, %69
  call void @llvm.lifetime.end.p0(i64 1, ptr %5) #7
  call void @llvm.lifetime.end.p0(i64 4, ptr %4) #7
  %73 = load i8, ptr %2, align 1
  ret i8 %73
}