; Function Attrs: nounwind uwtable
define zeroext i8 @l_Lean_ParseImports_isIdRestCold(i32 noundef %0) local_unnamed_addr #0 {
  switch i32 %0, label %2 [
    i32 95, label %7
    i32 39, label %7
    i32 33, label %7
    i32 63, label %7
  ]

2:                                                ; preds = %1
  %3 = tail call zeroext i8 @l_Lean_isLetterLike(i32 noundef %0) #6
  %4 = icmp eq i8 %3, 0
  br i1 %4, label %5, label %7

5:                                                ; preds = %2
  %6 = tail call zeroext i8 @l_Lean_isSubScriptAlnum(i32 noundef %0) #6
  br label %7

7:                                                ; preds = %1, %1, %1, %1, %2, %5
  %.4 = phi i8 [ %6, %5 ], [ 1, %2 ], [ 1, %1 ], [ 1, %1 ], [ 1, %1 ], [ 1, %1 ]
  ret i8 %.4
}